; Function Attrs: nounwind uwtable
define ptr @l_Nat_forM___rarg(ptr noundef %0, ptr noundef %1, ptr noundef %2) #0 {
  %4 = ptrtoint ptr %1 to i64
  %5 = and i64 %4, 1
  %.not = icmp eq i64 %5, 0
  br i1 %.not, label %6, label %lean_inc.exit

6:                                                ; preds = %3
  %.val.i = load i32, ptr %1, align 4, !tbaa !9
  %7 = icmp sgt i32 %.val.i, 0
  br i1 %7, label %8, label %10, !prof !12

8:                                                ; preds = %6
  %9 = add nuw i32 %.val.i, 1
  store i32 %9, ptr %1, align 4, !tbaa !9
  br label %13

10:                                               ; preds = %6
  %.not.i7 = icmp eq i32 %.val.i, 0
  br i1 %.not.i7, label %13, label %11

11:                                               ; preds = %10
  tail call void @lean_inc_ref_cold(ptr noundef nonnull %1) #3
  br label %13

lean_inc.exit:                                    ; preds = %3
  %12 = tail call ptr @l_Nat_forM_loop___rarg(ptr noundef %0, ptr noundef %1, ptr noundef %2, ptr noundef %1, ptr nonnull poison)
  br label %lean_dec.exit

13:                                               ; preds = %11, %10, %8
  %14 = tail call ptr @l_Nat_forM_loop___rarg(ptr noundef %0, ptr noundef nonnull %1, ptr noundef %2, ptr noundef nonnull %1, ptr nonnull poison)
  %15 = load i32, ptr %1, align 4, !tbaa !9
  %16 = icmp sgt i32 %15, 1
  br i1 %16, label %17, label %19, !prof !12

17:                                               ; preds = %13
  %18 = add nsw i32 %15, -1
  store i32 %18, ptr %1, align 4, !tbaa !9
  br label %lean_dec.exit

19:                                               ; preds = %13
  %.not.i = icmp eq i32 %15, 0
  br i1 %.not.i, label %lean_dec.exit, label %20

20:                                               ; preds = %19
  tail call void @lean_dec_ref_cold(ptr noundef nonnull %1) #3
  br label %lean_dec.exit

lean_dec.exit:                                    ; preds = %20, %19, %17, %lean_inc.exit
  %21 = phi ptr [ %12, %lean_inc.exit ], [ %14, %17 ], [ %14, %19 ], [ %14, %20 ]
  ret ptr %21
}